target datalayout = "e-m:e-p270:32:32-p271:32:32-p272:64:64-i64:64-i128:128-f80:128-n8:16:32:64-S128"
target triple = "x86_64-pc-linux-gnu"

%"class.clang::QualType" = type { %"class.llvm::PointerIntPair.148" }
%"class.llvm::PointerIntPair.148" = type { %"struct.llvm::detail::PunnedPointer.149" }
%"struct.llvm::detail::PunnedPointer.149" = type { [8 x i8] }
%"class.clang::ExtQualsTypeCommonBase" = type { ptr, %"class.clang::QualType" }
%union.anon.614 = type { %"class.clang::Type::FunctionTypeBitfields" }
%"class.clang::Type::FunctionTypeBitfields" = type { i64 }
%"class.clang::Type.base" = type { %"class.clang::ExtQualsTypeCommonBase", %union.anon.614 }
%"class.clang::UnaryTransformType" = type <{ %"class.clang::Type.base", %"class.clang::QualType", %"class.clang::QualType", i32, [4 x i8] }>

; Function Attrs: mustprogress nounwind uwtable
define internal noundef zeroext i1 @_ZN5clang19RecursiveASTVisitorINS_12_GLOBAL__N_17BuilderEE9VisitTypeEPNS_4TypeE(ptr noundef nonnull align 1 dereferenceable(1) %0, ptr noundef %1) #0 align 2 {
  %3 = alloca ptr, align 8
  %4 = alloca ptr, align 8
  store ptr %0, ptr %3, align 8
  store ptr %1, ptr %4, align 8
  ret i1 true
}

; Function Attrs: mustprogress nounwind uwtable
define internal noundef zeroext i1 @_ZN5clang19RecursiveASTVisitorINS_12_GLOBAL__N_17BuilderEE23VisitUnaryTransformTypeEPNS_18UnaryTransformTypeE(ptr noundef nonnull align 1 dereferenceable(1) %0, ptr noundef %1) #0 align 2 {
  %3 = alloca ptr, align 8
  %4 = alloca ptr, align 8
  store ptr %0, ptr %3, align 8
  store ptr %1, ptr %4, align 8
  ret i1 true
}

; Function Attrs: mustprogress nounwind uwtable
define internal noundef zeroext i1 @_ZN5clang19RecursiveASTVisitorINS_12_GLOBAL__N_17BuilderEE14WalkUpFromTypeEPNS_4TypeE(ptr noundef nonnull align 1 dereferenceable(1) %0, ptr noundef %1) #0 align 2 {
  %3 = alloca ptr, align 8
  %4 = alloca ptr, align 8
  store ptr %0, ptr %3, align 8
  store ptr %1, ptr %4, align 8
  %5 = load ptr, ptr %3, align 8
  %6 = call noundef nonnull align 8 dereferenceable(8) ptr @_ZN5clang19RecursiveASTVisitorINS_12_GLOBAL__N_17BuilderEE10getDerivedEv(ptr noundef nonnull align 1 dereferenceable(1) %5)
  %7 = load ptr, ptr %4, align 8
  %8 = call noundef zeroext i1 @_ZN5clang19RecursiveASTVisitorINS_12_GLOBAL__N_17BuilderEE9VisitTypeEPNS_4TypeE(ptr noundef nonnull align 1 dereferenceable(1) %6, ptr noundef %7)
  ret i1 %8
}

; Function Attrs: mustprogress nounwind uwtable
define linkonce_odr hidden i64 @_ZNK5clang18UnaryTransformType17getUnderlyingTypeEv(ptr noundef nonnull align 16 dereferenceable(44) %0) #0 comdat align 2 {
  %2 = alloca %"class.clang::QualType", align 8
  %3 = alloca ptr, align 8
  store ptr %0, ptr %3, align 8
  %4 = load ptr, ptr %3, align 8
  %5 = getelementptr inbounds nuw %"class.clang::UnaryTransformType", ptr %4, i32 0, i32 2
  call void @llvm.memcpy.p0.p0.i64(ptr align 8 %2, ptr align 16 %5, i64 8, i1 false)
  %6 = getelementptr inbounds nuw %"class.clang::QualType", ptr %2, i32 0, i32 0
  %7 = getelementptr inbounds nuw %"class.llvm::PointerIntPair.148", ptr %6, i32 0, i32 0
  %8 = getelementptr inbounds nuw %"struct.llvm::detail::PunnedPointer.149", ptr %7, i32 0, i32 0
  %9 = load i64, ptr %8, align 8
  ret i64 %9
}

; Function Attrs: mustprogress nounwind uwtable
define linkonce_odr hidden i64 @_ZNK5clang18UnaryTransformType11getBaseTypeEv(ptr noundef nonnull align 16 dereferenceable(44) %0) #0 comdat align 2 {
  %2 = alloca %"class.clang::QualType", align 8
  %3 = alloca ptr, align 8
  store ptr %0, ptr %3, align 8
  %4 = load ptr, ptr %3, align 8
  %5 = getelementptr inbounds nuw %"class.clang::UnaryTransformType", ptr %4, i32 0, i32 1
  call void @llvm.memcpy.p0.p0.i64(ptr align 8 %2, ptr align 8 %5, i64 8, i1 false)
  %6 = getelementptr inbounds nuw %"class.clang::QualType", ptr %2, i32 0, i32 0
  %7 = getelementptr inbounds nuw %"class.llvm::PointerIntPair.148", ptr %6, i32 0, i32 0
  %8 = getelementptr inbounds nuw %"struct.llvm::detail::PunnedPointer.149", ptr %7, i32 0, i32 0
  %9 = load i64, ptr %8, align 8
  ret i64 %9
}

; Function Attrs: mustprogress nounwind uwtable
define internal noundef zeroext i1 @_ZN5clang19RecursiveASTVisitorINS_12_GLOBAL__N_17BuilderEE28WalkUpFromUnaryTransformTypeEPNS_18UnaryTransformTypeE(ptr noundef nonnull align 1 dereferenceable(1) %0, ptr noundef %1) #0 align 2 {
  %3 = alloca i1, align 1
  %4 = alloca ptr, align 8
  %5 = alloca ptr, align 8
  store ptr %0, ptr %4, align 8
  store ptr %1, ptr %5, align 8
  %6 = load ptr, ptr %4, align 8
  br label %7

7:                                                ; preds = %2
  %8 = call noundef nonnull align 8 dereferenceable(8) ptr @_ZN5clang19RecursiveASTVisitorINS_12_GLOBAL__N_17BuilderEE10getDerivedEv(ptr noundef nonnull align 1 dereferenceable(1) %6)
  %9 = load ptr, ptr %5, align 8
  %10 = call noundef zeroext i1 @_ZN5clang19RecursiveASTVisitorINS_12_GLOBAL__N_17BuilderEE14WalkUpFromTypeEPNS_4TypeE(ptr noundef nonnull align 1 dereferenceable(1) %8, ptr noundef %9)
  br i1 %10, label %12, label %11

11:                                               ; preds = %7
  store i1 false, ptr %3, align 1
  br label %21

12:                                               ; preds = %7
  br label %13

13:                                               ; preds = %12
  br label %14

14:                                               ; preds = %13
  %15 = call noundef nonnull align 8 dereferenceable(8) ptr @_ZN5clang19RecursiveASTVisitorINS_12_GLOBAL__N_17BuilderEE10getDerivedEv(ptr noundef nonnull align 1 dereferenceable(1) %6)
  %16 = load ptr, ptr %5, align 8
  %17 = call noundef zeroext i1 @_ZN5clang19RecursiveASTVisitorINS_12_GLOBAL__N_17BuilderEE23VisitUnaryTransformTypeEPNS_18UnaryTransformTypeE(ptr noundef nonnull align 1 dereferenceable(1) %15, ptr noundef %16)
  br i1 %17, label %19, label %18

18:                                               ; preds = %14
  store i1 false, ptr %3, align 1
  br label %21

19:                                               ; preds = %14
  br label %20

20:                                               ; preds = %19
  store i1 true, ptr %3, align 1
  br label %21

21:                                               ; preds = %20, %18, %11
  %22 = load i1, ptr %3, align 1
  ret i1 %22
}

; Function Attrs: mustprogress nounwind uwtable
define internal noundef zeroext i1 @_ZNK5clang19RecursiveASTVisitorINS_12_GLOBAL__N_17BuilderEE23shouldTraversePostOrderEv(ptr noundef nonnull align 1 dereferenceable(1) %0) #0 align 2 {
  %2 = alloca ptr, align 8
  store ptr %0, ptr %2, align 8
  ret i1 false
}

; Function Attrs: mustprogress nounwind uwtable
define internal noundef nonnull align 8 dereferenceable(8) ptr @_ZN5clang19RecursiveASTVisitorINS_12_GLOBAL__N_17BuilderEE10getDerivedEv(ptr noundef nonnull align 1 dereferenceable(1) %0) #0 align 2 {
  %2 = alloca ptr, align 8
  store ptr %0, ptr %2, align 8
  %3 = load ptr, ptr %2, align 8
  ret ptr %3
}

; Function Attrs: mustprogress nounwind uwtable
define internal noundef zeroext i1 @_ZN5clang19RecursiveASTVisitorINS_12_GLOBAL__N_17BuilderEE26TraverseUnaryTransformTypeEPNS_18UnaryTransformTypeE(ptr noundef nonnull align 1 dereferenceable(1) %0, ptr noundef %1) #0 align 2 {
  %3 = alloca i1, align 1
  %4 = alloca ptr, align 8
  %5 = alloca ptr, align 8
  %6 = alloca %"class.clang::QualType", align 8
  %7 = alloca %"class.clang::QualType", align 8
  store ptr %0, ptr %4, align 8
  store ptr %1, ptr %5, align 8
  %8 = load ptr, ptr %4, align 8
  %9 = call noundef nonnull align 8 dereferenceable(8) ptr @_ZN5clang19RecursiveASTVisitorINS_12_GLOBAL__N_17BuilderEE10getDerivedEv(ptr noundef nonnull align 1 dereferenceable(1) %8)
  %10 = call noundef zeroext i1 @_ZNK5clang19RecursiveASTVisitorINS_12_GLOBAL__N_17BuilderEE23shouldTraversePostOrderEv(ptr noundef nonnull align 1 dereferenceable(1) %9)
  br i1 %10, label %19, label %11

11:                                               ; preds = %2
  br label %12

12:                                               ; preds = %11
  %13 = call noundef nonnull align 8 dereferenceable(8) ptr @_ZN5clang19RecursiveASTVisitorINS_12_GLOBAL__N_17BuilderEE10getDerivedEv(ptr noundef nonnull align 1 dereferenceable(1) %8)
  %14 = load ptr, ptr %5, align 8
  %15 = call noundef zeroext i1 @_ZN5clang19RecursiveASTVisitorINS_12_GLOBAL__N_17BuilderEE28WalkUpFromUnaryTransformTypeEPNS_18UnaryTransformTypeE(ptr noundef nonnull align 1 dereferenceable(1) %13, ptr noundef %14)
  br i1 %15, label %17, label %16

16:                                               ; preds = %12
  store i1 false, ptr %3, align 1
  br label %61

17:                                               ; preds = %12
  br label %18

18:                                               ; preds = %17
  br label %19

19:                                               ; preds = %18, %2
  br label %20

20:                                               ; preds = %19
  %21 = call noundef nonnull align 8 dereferenceable(8) ptr @_ZN5clang19RecursiveASTVisitorINS_12_GLOBAL__N_17BuilderEE10getDerivedEv(ptr noundef nonnull align 1 dereferenceable(1) %8)
  %22 = load ptr, ptr %5, align 8
  %23 = call i64 @_ZNK5clang18UnaryTransformType11getBaseTypeEv(ptr noundef nonnull align 16 dereferenceable(44) %22)
  %24 = getelementptr inbounds nuw %"class.clang::QualType", ptr %6, i32 0, i32 0
  %25 = getelementptr inbounds nuw %"class.llvm::PointerIntPair.148", ptr %24, i32 0, i32 0
  %26 = getelementptr inbounds nuw %"struct.llvm::detail::PunnedPointer.149", ptr %25, i32 0, i32 0
  store i64 %23, ptr %26, align 8
  %27 = getelementptr inbounds nuw %"class.clang::QualType", ptr %6, i32 0, i32 0
  %28 = getelementptr inbounds nuw %"class.llvm::PointerIntPair.148", ptr %27, i32 0, i32 0
  %29 = getelementptr inbounds nuw %"struct.llvm::detail::PunnedPointer.149", ptr %28, i32 0, i32 0
  %30 = load i64, ptr %29, align 8
  %31 = call noundef zeroext i1 @_ZN5clang19RecursiveASTVisitorINS_12_GLOBAL__N_17BuilderEE12TraverseTypeENS_8QualTypeE(ptr noundef nonnull align 1 dereferenceable(1) %21, i64 %30)
  br i1 %31, label %33, label %32

32:                                               ; preds = %20
  store i1 false, ptr %3, align 1
  br label %61

33:                                               ; preds = %20
  br label %34

34:                                               ; preds = %33
  br label %35

35:                                               ; preds = %34
  %36 = call noundef nonnull align 8 dereferenceable(8) ptr @_ZN5clang19RecursiveASTVisitorINS_12_GLOBAL__N_17BuilderEE10getDerivedEv(ptr noundef nonnull align 1 dereferenceable(1) %8)
  %37 = load ptr, ptr %5, align 8
  %38 = call i64 @_ZNK5clang18UnaryTransformType17getUnderlyingTypeEv(ptr noundef nonnull align 16 dereferenceable(44) %37)
  %39 = getelementptr inbounds nuw %"class.clang::QualType", ptr %7, i32 0, i32 0
  %40 = getelementptr inbounds nuw %"class.llvm::PointerIntPair.148", ptr %39, i32 0, i32 0
  %41 = getelementptr inbounds nuw %"struct.llvm::detail::PunnedPointer.149", ptr %40, i32 0, i32 0
  store i64 %38, ptr %41, align 8
  %42 = getelementptr inbounds nuw %"class.clang::QualType", ptr %7, i32 0, i32 0
  %43 = getelementptr inbounds nuw %"class.llvm::PointerIntPair.148", ptr %42, i32 0, i32 0
  %44 = getelementptr inbounds nuw %"struct.llvm::detail::PunnedPointer.149", ptr %43, i32 0, i32 0
  %45 = load i64, ptr %44, align 8
  %46 = call noundef zeroext i1 @_ZN5clang19RecursiveASTVisitorINS_12_GLOBAL__N_17BuilderEE12TraverseTypeENS_8QualTypeE(ptr noundef nonnull align 1 dereferenceable(1) %36, i64 %45)
  br i1 %46, label %48, label %47

47:                                               ; preds = %35
  store i1 false, ptr %3, align 1
  br label %61

48:                                               ; preds = %35
  br label %49

49:                                               ; preds = %48
  %50 = call noundef nonnull align 8 dereferenceable(8) ptr @_ZN5clang19RecursiveASTVisitorINS_12_GLOBAL__N_17BuilderEE10getDerivedEv(ptr noundef nonnull align 1 dereferenceable(1) %8)
  %51 = call noundef zeroext i1 @_ZNK5clang19RecursiveASTVisitorINS_12_GLOBAL__N_17BuilderEE23shouldTraversePostOrderEv(ptr noundef nonnull align 1 dereferenceable(1) %50)
  br i1 %51, label %52, label %60

52:                                               ; preds = %49
  br label %53

53:                                               ; preds = %52
  %54 = call noundef nonnull align 8 dereferenceable(8) ptr @_ZN5clang19RecursiveASTVisitorINS_12_GLOBAL__N_17BuilderEE10getDerivedEv(ptr noundef nonnull align 1 dereferenceable(1) %8)
  %55 = load ptr, ptr %5, align 8
  %56 = call noundef zeroext i1 @_ZN5clang19RecursiveASTVisitorINS_12_GLOBAL__N_17BuilderEE28WalkUpFromUnaryTransformTypeEPNS_18UnaryTransformTypeE(ptr noundef nonnull align 1 dereferenceable(1) %54, ptr noundef %55)
  br i1 %56, label %58, label %57

57:                                               ; preds = %53
  store i1 false, ptr %3, align 1
  br label %61

58:                                               ; preds = %53
  br label %59

59:                                               ; preds = %58
  br label %60

60:                                               ; preds = %59, %49
  store i1 true, ptr %3, align 1
  br label %61

61:                                               ; preds = %60, %57, %47, %32, %16
  %62 = load i1, ptr %3, align 1
  ret i1 %62
}